target datalayout = "e-m:e-p270:32:32-p271:32:32-p272:64:64-i64:64-i128:128-f80:128-n8:16:32:64-S128"
target triple = "x86_64-pc-linux-gnu"

%struct.XLogRecData = type { ptr, ptr, i32 }
%struct.registered_buffer = type { i8, i8, %struct.RelFileLocator, i32, i32, ptr, i32, ptr, ptr, [2 x %struct.XLogRecData], [8196 x i8] }
%struct.RelFileLocator = type { i32, i32, i32 }

@.str.1 = private unnamed_addr constant [13 x i8] c"xloginsert.c\00", align 1
@.str.3 = private unnamed_addr constant [55 x i8] c"maximum number of WAL record block references exceeded\00", align 1
@__func__.XLogEnsureRecordSpace = private unnamed_addr constant [22 x i8] c"XLogEnsureRecordSpace\00", align 1
@max_registered_buffers = internal global i32 0, align 4
@registered_buffers = internal global ptr null, align 8
@max_rdatas = internal global i32 0, align 4
@rdatas = internal global ptr null, align 8

; Function Attrs: nounwind uwtable
define dso_local void @XLogEnsureRecordSpace(i32 noundef %0, i32 noundef %1) #0 {
  %3 = alloca i32, align 4
  %4 = alloca i32, align 4
  %5 = alloca i32, align 4
  %6 = alloca ptr, align 8
  %7 = alloca i32, align 4
  %8 = alloca i64, align 8
  %9 = alloca ptr, align 8
  %10 = alloca ptr, align 8
  store i32 %0, ptr %3, align 4
  store i32 %1, ptr %4, align 4
  call void @llvm.lifetime.start.p0(i64 4, ptr %5) #9
  %11 = load i32, ptr %3, align 4
  %12 = icmp slt i32 %11, 4
  br i1 %12, label %13, label %14

13:                                               ; preds = %2
  store i32 4, ptr %3, align 4
  br label %14

14:                                               ; preds = %13, %2
  %15 = load i32, ptr %4, align 4
  %16 = icmp slt i32 %15, 20
  br i1 %16, label %17, label %18

17:                                               ; preds = %14
  store i32 20, ptr %4, align 4
  br label %18

18:                                               ; preds = %17, %14
  %19 = load i32, ptr %3, align 4
  %20 = icmp sgt i32 %19, 32
  br i1 %20, label %21, label %32

21:                                               ; preds = %18
  br label %22

22:                                               ; preds = %21
  br i1 true, label %23, label %25

23:                                               ; preds = %22
  %24 = call zeroext i1 @errstart_cold(i32 noundef 21, ptr noundef null) #8
  br i1 %24, label %27, label %29

25:                                               ; preds = %22
  %26 = call zeroext i1 @errstart(i32 noundef 21, ptr noundef null)
  br i1 %26, label %27, label %29

27:                                               ; preds = %25, %23
  %28 = call i32 (ptr, ...) @errmsg_internal(ptr noundef @.str.3)
  call void @errfinish(ptr noundef @.str.1, i32 noundef 194, ptr noundef @__func__.XLogEnsureRecordSpace)
  br label %29

29:                                               ; preds = %27, %25, %23
  unreachable

30:                                               ; No predecessors!
  br label %31

31:                                               ; preds = %30
  br label %32

32:                                               ; preds = %31, %18
  %33 = load i32, ptr %3, align 4
  %34 = add i32 %33, 1
  store i32 %34, ptr %5, align 4
  %35 = load i32, ptr %5, align 4
  %36 = load i32, ptr @max_registered_buffers, align 4
  %37 = icmp sgt i32 %35, %36
  br i1 %37, label %38, label %90

38:                                               ; preds = %32
  %39 = load ptr, ptr @registered_buffers, align 8
  %40 = load i32, ptr %5, align 4
  %41 = sext i32 %40 to i64
  %42 = mul i64 8304, %41
  %43 = call ptr @repalloc(ptr noundef %39, i64 noundef %42)
  store ptr %43, ptr @registered_buffers, align 8
  br label %44

44:                                               ; preds = %38
  call void @llvm.lifetime.start.p0(i64 8, ptr %6) #9
  %45 = load ptr, ptr @registered_buffers, align 8
  %46 = load i32, ptr @max_registered_buffers, align 4
  %47 = sext i32 %46 to i64
  %48 = getelementptr inbounds %struct.registered_buffer, ptr %45, i64 %47
  store ptr %48, ptr %6, align 8
  call void @llvm.lifetime.start.p0(i64 4, ptr %7) #9
  store i32 0, ptr %7, align 4
  call void @llvm.lifetime.start.p0(i64 8, ptr %8) #9
  %49 = load i32, ptr %5, align 4
  %50 = load i32, ptr @max_registered_buffers, align 4
  %51 = sub i32 %49, %50
  %52 = sext i32 %51 to i64
  %53 = mul i64 %52, 8304
  store i64 %53, ptr %8, align 8
  %54 = load ptr, ptr %6, align 8
  %55 = ptrtoint ptr %54 to i64
  %56 = and i64 %55, 7
  %57 = icmp eq i64 %56, 0
  br i1 %57, label %58, label %81

58:                                               ; preds = %44
  %59 = load i64, ptr %8, align 8
  %60 = and i64 %59, 7
  %61 = icmp eq i64 %60, 0
  br i1 %61, label %62, label %81

62:                                               ; preds = %58
  %63 = load i32, ptr %7, align 4
  %64 = icmp eq i32 %63, 0
  br i1 %64, label %65, label %81

65:                                               ; preds = %62
  %66 = load i64, ptr %8, align 8
  %67 = icmp ule i64 %66, 1024
  br i1 %67, label %68, label %81

68:                                               ; preds = %65
  call void @llvm.lifetime.start.p0(i64 8, ptr %9) #9
  %69 = load ptr, ptr %6, align 8
  store ptr %69, ptr %9, align 8
  call void @llvm.lifetime.start.p0(i64 8, ptr %10) #9
  %70 = load ptr, ptr %9, align 8
  %71 = load i64, ptr %8, align 8
  %72 = getelementptr inbounds nuw i8, ptr %70, i64 %71
  store ptr %72, ptr %10, align 8
  br label %73

73:                                               ; preds = %77, %68
  %74 = load ptr, ptr %9, align 8
  %75 = load ptr, ptr %10, align 8
  %76 = icmp ult ptr %74, %75
  br i1 %76, label %77, label %80

77:                                               ; preds = %73
  %78 = load ptr, ptr %9, align 8
  %79 = getelementptr inbounds nuw i64, ptr %78, i32 1
  store ptr %79, ptr %9, align 8
  store i64 0, ptr %78, align 8
  br label %73, !llvm.loop !6

80:                                               ; preds = %73
  call void @llvm.lifetime.end.p0(i64 8, ptr %10) #9
  call void @llvm.lifetime.end.p0(i64 8, ptr %9) #9
  br label %86

81:                                               ; preds = %65, %62, %58, %44
  %82 = load ptr, ptr %6, align 8
  %83 = load i32, ptr %7, align 4
  %84 = trunc i32 %83 to i8
  %85 = load i64, ptr %8, align 8
  call void @llvm.memset.p0.i64(ptr align 1 %82, i8 %84, i64 %85, i1 false)
  br label %86

86:                                               ; preds = %81, %80
  call void @llvm.lifetime.end.p0(i64 8, ptr %8) #9
  call void @llvm.lifetime.end.p0(i64 4, ptr %7) #9
  call void @llvm.lifetime.end.p0(i64 8, ptr %6) #9
  br label %87

87:                                               ; preds = %86
  br label %88

88:                                               ; preds = %87
  %89 = load i32, ptr %5, align 4
  store i32 %89, ptr @max_registered_buffers, align 4
  br label %90

90:                                               ; preds = %88, %32
  %91 = load i32, ptr %4, align 4
  %92 = load i32, ptr @max_rdatas, align 4
  %93 = icmp sgt i32 %91, %92
  br i1 %93, label %94, label %101

94:                                               ; preds = %90
  %95 = load ptr, ptr @rdatas, align 8
  %96 = load i32, ptr %4, align 4
  %97 = sext i32 %96 to i64
  %98 = mul i64 24, %97
  %99 = call ptr @repalloc(ptr noundef %95, i64 noundef %98)
  store ptr %99, ptr @rdatas, align 8
  %100 = load i32, ptr %4, align 4
  store i32 %100, ptr @max_rdatas, align 4
  br label %101

101:                                              ; preds = %94, %90
  call void @llvm.lifetime.end.p0(i64 4, ptr %5) #9
  ret void
}