; Function Attrs: nounwind uwtable
define dso_local void @XLogEnsureRecordSpace(i32 noundef %0, i32 noundef %1) local_unnamed_addr #0 {
  %spec.store.select4 = tail call i32 @llvm.smax.i32(i32 %1, i32 20)
  %3 = icmp sgt i32 %0, 32
  br i1 %3, label %4, label %7

4:                                                ; preds = %2
  %5 = tail call zeroext i1 @errstart_cold(i32 noundef 21, ptr noundef null) #11
  tail call void @llvm.assume(i1 %5)
  %6 = tail call i32 (ptr, ...) @errmsg_internal(ptr noundef nonnull @.str.3) #10
  tail call void @errfinish(ptr noundef nonnull @.str.1, i32 noundef 194, ptr noundef nonnull @__func__.XLogEnsureRecordSpace) #10
  unreachable

7:                                                ; preds = %2
  %spec.store.select = tail call i32 @llvm.smax.i32(i32 %0, i32 4)
  %8 = add nuw nsw i32 %spec.store.select, 1
  %9 = load i32, ptr @max_registered_buffers, align 4
  %.not = icmp slt i32 %spec.store.select, %9
  br i1 %.not, label %42, label %10

10:                                               ; preds = %7
  %11 = load ptr, ptr @registered_buffers, align 8
  %12 = zext nneg i32 %8 to i64
  %13 = mul nuw nsw i64 %12, 8304
  %14 = tail call ptr @repalloc(ptr noundef %11, i64 noundef %13) #10
  %15 = ptrtoint ptr %14 to i64
  store ptr %14, ptr @registered_buffers, align 8
  %16 = load i32, ptr @max_registered_buffers, align 4
  %17 = zext nneg i32 %16 to i64
  %18 = getelementptr inbounds nuw %struct.registered_buffer, ptr %14, i64 %17
  %19 = sub nsw i32 %8, %16
  %20 = sext i32 %19 to i64
  %21 = mul nsw i64 %20, 8304
  %22 = ptrtoint ptr %18 to i64
  %23 = and i64 %22, 7
  %24 = icmp eq i64 %23, 0
  %25 = icmp ult i64 %21, 1025
  %or.cond = select i1 %24, i1 %25, i1 false
  br i1 %or.cond, label %26, label %41

26:                                               ; preds = %10
  %.not30 = icmp eq i32 %8, %16
  br i1 %.not30, label %.loopexit, label %.lr.ph.preheader

.lr.ph.preheader:                                 ; preds = %26
  %27 = zext nneg i32 %8 to i64
  %28 = mul nuw nsw i64 %27, 8304
  %29 = add i64 %28, %15
  %30 = mul nuw nsw i64 %17, 8304
  %31 = add i64 %29, %30
  %32 = sext i32 %16 to i64
  %.neg = mul nsw i64 %32, -8304
  %33 = add i64 %.neg, %31
  %34 = add i64 %30, %15
  %35 = add i64 %34, 8
  %umax = tail call i64 @llvm.umax.i64(i64 %33, i64 %35)
  %36 = xor i64 %15, -1
  %37 = add i64 %umax, %36
  %38 = sub i64 %37, %30
  %39 = and i64 %38, -8
  %40 = add i64 %39, 8
  tail call void @llvm.memset.p0.i64(ptr align 8 %18, i8 0, i64 %40, i1 false)
  br label %.loopexit

41:                                               ; preds = %10
  tail call void @llvm.memset.p0.i64(ptr align 1 %18, i8 0, i64 %21, i1 false)
  br label %.loopexit

.loopexit:                                        ; preds = %.lr.ph.preheader, %26, %41
  store i32 %8, ptr @max_registered_buffers, align 4
  br label %42

42:                                               ; preds = %.loopexit, %7
  %43 = load i32, ptr @max_rdatas, align 4
  %44 = icmp sgt i32 %spec.store.select4, %43
  br i1 %44, label %45, label %50

45:                                               ; preds = %42
  %46 = load ptr, ptr @rdatas, align 8
  %47 = zext nneg i32 %spec.store.select4 to i64
  %48 = mul nuw nsw i64 %47, 24
  %49 = tail call ptr @repalloc(ptr noundef %46, i64 noundef %48) #10
  store ptr %49, ptr @rdatas, align 8
  store i32 %spec.store.select4, ptr @max_rdatas, align 4
  br label %50

50:                                               ; preds = %45, %42
  ret void
}